target datalayout = "e-m:e-p270:32:32-p271:32:32-p272:64:64-i64:64-i128:128-f80:128-n8:16:32:64-S128"
target triple = "x86_64-pc-linux-gnu"

; Function Attrs: mustprogress nounwind uwtable
define i32 @fstUtilityBinToEsc(ptr noundef %0, ptr noundef %1, i32 noundef %2) #8 {
  %4 = alloca ptr, align 8
  %5 = alloca ptr, align 8
  %6 = alloca i32, align 4
  %7 = alloca ptr, align 8
  %8 = alloca ptr, align 8
  %9 = alloca i8, align 1
  %10 = alloca i32, align 4
  store ptr %0, ptr %4, align 8, !tbaa !6
  store ptr %1, ptr %5, align 8, !tbaa !6
  store i32 %2, ptr %6, align 4, !tbaa !11
  call void @llvm.lifetime.start.p0(i64 8, ptr %7) #15
  %11 = load ptr, ptr %5, align 8, !tbaa !6
  store ptr %11, ptr %7, align 8, !tbaa !6
  call void @llvm.lifetime.start.p0(i64 8, ptr %8) #15
  %12 = load ptr, ptr %4, align 8, !tbaa !6
  store ptr %12, ptr %8, align 8, !tbaa !6
  call void @llvm.lifetime.start.p0(i64 1, ptr %9) #15
  call void @llvm.lifetime.start.p0(i64 4, ptr %10) #15
  store i32 0, ptr %10, align 4, !tbaa !11
  br label %13

13:                                               ; preds = %141, %3
  %14 = load i32, ptr %10, align 4, !tbaa !11
  %15 = load i32, ptr %6, align 4, !tbaa !11
  %16 = icmp slt i32 %14, %15
  br i1 %16, label %17, label %144

17:                                               ; preds = %13
  %18 = load ptr, ptr %7, align 8, !tbaa !6
  %19 = load i32, ptr %10, align 4, !tbaa !11
  %20 = sext i32 %19 to i64
  %21 = getelementptr inbounds i8, ptr %18, i64 %20
  %22 = load i8, ptr %21, align 1, !tbaa !34
  %23 = zext i8 %22 to i32
  switch i32 %23, label %79 [
    i32 7, label %24
    i32 8, label %29
    i32 12, label %34
    i32 10, label %39
    i32 13, label %44
    i32 9, label %49
    i32 11, label %54
    i32 39, label %59
    i32 34, label %64
    i32 92, label %69
    i32 63, label %74
  ]

24:                                               ; preds = %17
  %25 = load ptr, ptr %8, align 8, !tbaa !6
  %26 = getelementptr inbounds nuw i8, ptr %25, i32 1
  store ptr %26, ptr %8, align 8, !tbaa !6
  store i8 92, ptr %25, align 1, !tbaa !34
  %27 = load ptr, ptr %8, align 8, !tbaa !6
  %28 = getelementptr inbounds nuw i8, ptr %27, i32 1
  store ptr %28, ptr %8, align 8, !tbaa !6
  store i8 97, ptr %27, align 1, !tbaa !34
  br label %140

29:                                               ; preds = %17
  %30 = load ptr, ptr %8, align 8, !tbaa !6
  %31 = getelementptr inbounds nuw i8, ptr %30, i32 1
  store ptr %31, ptr %8, align 8, !tbaa !6
  store i8 92, ptr %30, align 1, !tbaa !34
  %32 = load ptr, ptr %8, align 8, !tbaa !6
  %33 = getelementptr inbounds nuw i8, ptr %32, i32 1
  store ptr %33, ptr %8, align 8, !tbaa !6
  store i8 98, ptr %32, align 1, !tbaa !34
  br label %140

34:                                               ; preds = %17
  %35 = load ptr, ptr %8, align 8, !tbaa !6
  %36 = getelementptr inbounds nuw i8, ptr %35, i32 1
  store ptr %36, ptr %8, align 8, !tbaa !6
  store i8 92, ptr %35, align 1, !tbaa !34
  %37 = load ptr, ptr %8, align 8, !tbaa !6
  %38 = getelementptr inbounds nuw i8, ptr %37, i32 1
  store ptr %38, ptr %8, align 8, !tbaa !6
  store i8 102, ptr %37, align 1, !tbaa !34
  br label %140

39:                                               ; preds = %17
  %40 = load ptr, ptr %8, align 8, !tbaa !6
  %41 = getelementptr inbounds nuw i8, ptr %40, i32 1
  store ptr %41, ptr %8, align 8, !tbaa !6
  store i8 92, ptr %40, align 1, !tbaa !34
  %42 = load ptr, ptr %8, align 8, !tbaa !6
  %43 = getelementptr inbounds nuw i8, ptr %42, i32 1
  store ptr %43, ptr %8, align 8, !tbaa !6
  store i8 110, ptr %42, align 1, !tbaa !34
  br label %140

44:                                               ; preds = %17
  %45 = load ptr, ptr %8, align 8, !tbaa !6
  %46 = getelementptr inbounds nuw i8, ptr %45, i32 1
  store ptr %46, ptr %8, align 8, !tbaa !6
  store i8 92, ptr %45, align 1, !tbaa !34
  %47 = load ptr, ptr %8, align 8, !tbaa !6
  %48 = getelementptr inbounds nuw i8, ptr %47, i32 1
  store ptr %48, ptr %8, align 8, !tbaa !6
  store i8 114, ptr %47, align 1, !tbaa !34
  br label %140

49:                                               ; preds = %17
  %50 = load ptr, ptr %8, align 8, !tbaa !6
  %51 = getelementptr inbounds nuw i8, ptr %50, i32 1
  store ptr %51, ptr %8, align 8, !tbaa !6
  store i8 92, ptr %50, align 1, !tbaa !34
  %52 = load ptr, ptr %8, align 8, !tbaa !6
  %53 = getelementptr inbounds nuw i8, ptr %52, i32 1
  store ptr %53, ptr %8, align 8, !tbaa !6
  store i8 116, ptr %52, align 1, !tbaa !34
  br label %140

54:                                               ; preds = %17
  %55 = load ptr, ptr %8, align 8, !tbaa !6
  %56 = getelementptr inbounds nuw i8, ptr %55, i32 1
  store ptr %56, ptr %8, align 8, !tbaa !6
  store i8 92, ptr %55, align 1, !tbaa !34
  %57 = load ptr, ptr %8, align 8, !tbaa !6
  %58 = getelementptr inbounds nuw i8, ptr %57, i32 1
  store ptr %58, ptr %8, align 8, !tbaa !6
  store i8 118, ptr %57, align 1, !tbaa !34
  br label %140

59:                                               ; preds = %17
  %60 = load ptr, ptr %8, align 8, !tbaa !6
  %61 = getelementptr inbounds nuw i8, ptr %60, i32 1
  store ptr %61, ptr %8, align 8, !tbaa !6
  store i8 92, ptr %60, align 1, !tbaa !34
  %62 = load ptr, ptr %8, align 8, !tbaa !6
  %63 = getelementptr inbounds nuw i8, ptr %62, i32 1
  store ptr %63, ptr %8, align 8, !tbaa !6
  store i8 39, ptr %62, align 1, !tbaa !34
  br label %140

64:                                               ; preds = %17
  %65 = load ptr, ptr %8, align 8, !tbaa !6
  %66 = getelementptr inbounds nuw i8, ptr %65, i32 1
  store ptr %66, ptr %8, align 8, !tbaa !6
  store i8 92, ptr %65, align 1, !tbaa !34
  %67 = load ptr, ptr %8, align 8, !tbaa !6
  %68 = getelementptr inbounds nuw i8, ptr %67, i32 1
  store ptr %68, ptr %8, align 8, !tbaa !6
  store i8 34, ptr %67, align 1, !tbaa !34
  br label %140

69:                                               ; preds = %17
  %70 = load ptr, ptr %8, align 8, !tbaa !6
  %71 = getelementptr inbounds nuw i8, ptr %70, i32 1
  store ptr %71, ptr %8, align 8, !tbaa !6
  store i8 92, ptr %70, align 1, !tbaa !34
  %72 = load ptr, ptr %8, align 8, !tbaa !6
  %73 = getelementptr inbounds nuw i8, ptr %72, i32 1
  store ptr %73, ptr %8, align 8, !tbaa !6
  store i8 92, ptr %72, align 1, !tbaa !34
  br label %140

74:                                               ; preds = %17
  %75 = load ptr, ptr %8, align 8, !tbaa !6
  %76 = getelementptr inbounds nuw i8, ptr %75, i32 1
  store ptr %76, ptr %8, align 8, !tbaa !6
  store i8 92, ptr %75, align 1, !tbaa !34
  %77 = load ptr, ptr %8, align 8, !tbaa !6
  %78 = getelementptr inbounds nuw i8, ptr %77, i32 1
  store ptr %78, ptr %8, align 8, !tbaa !6
  store i8 63, ptr %77, align 1, !tbaa !34
  br label %140

79:                                               ; preds = %17
  %80 = load ptr, ptr %7, align 8, !tbaa !6
  %81 = load i32, ptr %10, align 4, !tbaa !11
  %82 = sext i32 %81 to i64
  %83 = getelementptr inbounds i8, ptr %80, i64 %82
  %84 = load i8, ptr %83, align 1, !tbaa !34
  %85 = zext i8 %84 to i32
  %86 = icmp sgt i32 %85, 32
  br i1 %86, label %87, label %103

87:                                               ; preds = %79
  %88 = load ptr, ptr %7, align 8, !tbaa !6
  %89 = load i32, ptr %10, align 4, !tbaa !11
  %90 = sext i32 %89 to i64
  %91 = getelementptr inbounds i8, ptr %88, i64 %90
  %92 = load i8, ptr %91, align 1, !tbaa !34
  %93 = zext i8 %92 to i32
  %94 = icmp sle i32 %93, 126
  br i1 %94, label %95, label %103

95:                                               ; preds = %87
  %96 = load ptr, ptr %7, align 8, !tbaa !6
  %97 = load i32, ptr %10, align 4, !tbaa !11
  %98 = sext i32 %97 to i64
  %99 = getelementptr inbounds i8, ptr %96, i64 %98
  %100 = load i8, ptr %99, align 1, !tbaa !34
  %101 = load ptr, ptr %8, align 8, !tbaa !6
  %102 = getelementptr inbounds nuw i8, ptr %101, i32 1
  store ptr %102, ptr %8, align 8, !tbaa !6
  store i8 %100, ptr %101, align 1, !tbaa !34
  br label %139

103:                                              ; preds = %87, %79
  %104 = load ptr, ptr %7, align 8, !tbaa !6
  %105 = load i32, ptr %10, align 4, !tbaa !11
  %106 = sext i32 %105 to i64
  %107 = getelementptr inbounds i8, ptr %104, i64 %106
  %108 = load i8, ptr %107, align 1, !tbaa !34
  store i8 %108, ptr %9, align 1, !tbaa !34
  %109 = load ptr, ptr %8, align 8, !tbaa !6
  %110 = getelementptr inbounds nuw i8, ptr %109, i32 1
  store ptr %110, ptr %8, align 8, !tbaa !6
  store i8 92, ptr %109, align 1, !tbaa !34
  %111 = load i8, ptr %9, align 1, !tbaa !34
  %112 = zext i8 %111 to i32
  %113 = sdiv i32 %112, 64
  %114 = add nsw i32 %113, 48
  %115 = trunc i32 %114 to i8
  %116 = load ptr, ptr %8, align 8, !tbaa !6
  %117 = getelementptr inbounds nuw i8, ptr %116, i32 1
  store ptr %117, ptr %8, align 8, !tbaa !6
  store i8 %115, ptr %116, align 1, !tbaa !34
  %118 = load i8, ptr %9, align 1, !tbaa !34
  %119 = zext i8 %118 to i32
  %120 = and i32 %119, 63
  %121 = trunc i32 %120 to i8
  store i8 %121, ptr %9, align 1, !tbaa !34
  %122 = load i8, ptr %9, align 1, !tbaa !34
  %123 = zext i8 %122 to i32
  %124 = sdiv i32 %123, 8
  %125 = add nsw i32 %124, 48
  %126 = trunc i32 %125 to i8
  %127 = load ptr, ptr %8, align 8, !tbaa !6
  %128 = getelementptr inbounds nuw i8, ptr %127, i32 1
  store ptr %128, ptr %8, align 8, !tbaa !6
  store i8 %126, ptr %127, align 1, !tbaa !34
  %129 = load i8, ptr %9, align 1, !tbaa !34
  %130 = zext i8 %129 to i32
  %131 = and i32 %130, 7
  %132 = trunc i32 %131 to i8
  store i8 %132, ptr %9, align 1, !tbaa !34
  %133 = load i8, ptr %9, align 1, !tbaa !34
  %134 = zext i8 %133 to i32
  %135 = add nsw i32 %134, 48
  %136 = trunc i32 %135 to i8
  %137 = load ptr, ptr %8, align 8, !tbaa !6
  %138 = getelementptr inbounds nuw i8, ptr %137, i32 1
  store ptr %138, ptr %8, align 8, !tbaa !6
  store i8 %136, ptr %137, align 1, !tbaa !34
  br label %139

139:                                              ; preds = %103, %95
  br label %140

140:                                              ; preds = %139, %74, %69, %64, %59, %54, %49, %44, %39, %34, %29, %24
  br label %141

141:                                              ; preds = %140
  %142 = load i32, ptr %10, align 4, !tbaa !11
  %143 = add nsw i32 %142, 1
  store i32 %143, ptr %10, align 4, !tbaa !11
  br label %13, !llvm.loop !132

144:                                              ; preds = %13
  %145 = load ptr, ptr %8, align 8, !tbaa !6
  %146 = load ptr, ptr %4, align 8, !tbaa !6
  %147 = ptrtoint ptr %145 to i64
  %148 = ptrtoint ptr %146 to i64
  %149 = sub i64 %147, %148
  %150 = trunc i64 %149 to i32
  call void @llvm.lifetime.end.p0(i64 4, ptr %10) #15
  call void @llvm.lifetime.end.p0(i64 1, ptr %9) #15
  call void @llvm.lifetime.end.p0(i64 8, ptr %8) #15
  call void @llvm.lifetime.end.p0(i64 8, ptr %7) #15
  ret i32 %150
}