; Function Attrs: mustprogress nofree norecurse nosync nounwind memory(argmem: readwrite) uwtable
define i32 @fstUtilityBinToEsc(ptr noundef %0, ptr noundef readonly captures(none) %1, i32 noundef %2) local_unnamed_addr #22 {
  %4 = icmp sgt i32 %2, 0
  br i1 %4, label %.lr.ph.preheader, label %._crit_edge

.lr.ph.preheader:                                 ; preds = %3
  %wide.trip.count = zext nneg i32 %2 to i64
  br label %.lr.ph

.lr.ph:                                           ; preds = %.lr.ph.preheader, %55
  %indvars.iv = phi i64 [ 0, %.lr.ph.preheader ], [ %indvars.iv.next, %55 ]
  %.04850 = phi ptr [ %0, %.lr.ph.preheader ], [ %.1, %55 ]
  %5 = getelementptr inbounds nuw i8, ptr %1, i64 %indvars.iv
  %6 = load i8, ptr %5, align 1, !tbaa !6
  switch i8 %6, label %40 [
    i8 7, label %7
    i8 8, label %10
    i8 12, label %13
    i8 10, label %16
    i8 13, label %19
    i8 9, label %22
    i8 11, label %25
    i8 39, label %28
    i8 34, label %31
    i8 92, label %34
    i8 63, label %37
  ]

7:                                                ; preds = %.lr.ph
  %8 = getelementptr inbounds nuw i8, ptr %.04850, i64 1
  store i8 92, ptr %.04850, align 1, !tbaa !6
  %9 = getelementptr inbounds nuw i8, ptr %.04850, i64 2
  store i8 97, ptr %8, align 1, !tbaa !6
  br label %55

10:                                               ; preds = %.lr.ph
  %11 = getelementptr inbounds nuw i8, ptr %.04850, i64 1
  store i8 92, ptr %.04850, align 1, !tbaa !6
  %12 = getelementptr inbounds nuw i8, ptr %.04850, i64 2
  store i8 98, ptr %11, align 1, !tbaa !6
  br label %55

13:                                               ; preds = %.lr.ph
  %14 = getelementptr inbounds nuw i8, ptr %.04850, i64 1
  store i8 92, ptr %.04850, align 1, !tbaa !6
  %15 = getelementptr inbounds nuw i8, ptr %.04850, i64 2
  store i8 102, ptr %14, align 1, !tbaa !6
  br label %55

16:                                               ; preds = %.lr.ph
  %17 = getelementptr inbounds nuw i8, ptr %.04850, i64 1
  store i8 92, ptr %.04850, align 1, !tbaa !6
  %18 = getelementptr inbounds nuw i8, ptr %.04850, i64 2
  store i8 110, ptr %17, align 1, !tbaa !6
  br label %55

19:                                               ; preds = %.lr.ph
  %20 = getelementptr inbounds nuw i8, ptr %.04850, i64 1
  store i8 92, ptr %.04850, align 1, !tbaa !6
  %21 = getelementptr inbounds nuw i8, ptr %.04850, i64 2
  store i8 114, ptr %20, align 1, !tbaa !6
  br label %55

22:                                               ; preds = %.lr.ph
  %23 = getelementptr inbounds nuw i8, ptr %.04850, i64 1
  store i8 92, ptr %.04850, align 1, !tbaa !6
  %24 = getelementptr inbounds nuw i8, ptr %.04850, i64 2
  store i8 116, ptr %23, align 1, !tbaa !6
  br label %55

25:                                               ; preds = %.lr.ph
  %26 = getelementptr inbounds nuw i8, ptr %.04850, i64 1
  store i8 92, ptr %.04850, align 1, !tbaa !6
  %27 = getelementptr inbounds nuw i8, ptr %.04850, i64 2
  store i8 118, ptr %26, align 1, !tbaa !6
  br label %55

28:                                               ; preds = %.lr.ph
  %29 = getelementptr inbounds nuw i8, ptr %.04850, i64 1
  store i8 92, ptr %.04850, align 1, !tbaa !6
  %30 = getelementptr inbounds nuw i8, ptr %.04850, i64 2
  store i8 39, ptr %29, align 1, !tbaa !6
  br label %55

31:                                               ; preds = %.lr.ph
  %32 = getelementptr inbounds nuw i8, ptr %.04850, i64 1
  store i8 92, ptr %.04850, align 1, !tbaa !6
  %33 = getelementptr inbounds nuw i8, ptr %.04850, i64 2
  store i8 34, ptr %32, align 1, !tbaa !6
  br label %55

34:                                               ; preds = %.lr.ph
  %35 = getelementptr inbounds nuw i8, ptr %.04850, i64 1
  store i8 92, ptr %.04850, align 1, !tbaa !6
  %36 = getelementptr inbounds nuw i8, ptr %.04850, i64 2
  store i8 92, ptr %35, align 1, !tbaa !6
  br label %55

37:                                               ; preds = %.lr.ph
  %38 = getelementptr inbounds nuw i8, ptr %.04850, i64 1
  store i8 92, ptr %.04850, align 1, !tbaa !6
  %39 = getelementptr inbounds nuw i8, ptr %.04850, i64 2
  store i8 63, ptr %38, align 1, !tbaa !6
  br label %55

40:                                               ; preds = %.lr.ph
  %41 = add i8 %6, -33
  %or.cond = icmp ult i8 %41, 94
  %42 = getelementptr inbounds nuw i8, ptr %.04850, i64 1
  br i1 %or.cond, label %43, label %44

43:                                               ; preds = %40
  store i8 %6, ptr %.04850, align 1, !tbaa !6
  br label %55

44:                                               ; preds = %40
  store i8 92, ptr %.04850, align 1, !tbaa !6
  %45 = lshr i8 %6, 6
  %46 = or disjoint i8 %45, 48
  %47 = getelementptr inbounds nuw i8, ptr %.04850, i64 2
  store i8 %46, ptr %42, align 1, !tbaa !6
  %48 = lshr i8 %6, 3
  %49 = and i8 %48, 7
  %50 = or disjoint i8 %49, 48
  %51 = getelementptr inbounds nuw i8, ptr %.04850, i64 3
  store i8 %50, ptr %47, align 1, !tbaa !6
  %52 = and i8 %6, 7
  %53 = or disjoint i8 %52, 48
  %54 = getelementptr inbounds nuw i8, ptr %.04850, i64 4
  store i8 %53, ptr %51, align 1, !tbaa !6
  br label %55

55:                                               ; preds = %7, %10, %13, %16, %19, %22, %25, %28, %31, %34, %37, %44, %43
  %.1 = phi ptr [ %42, %43 ], [ %54, %44 ], [ %39, %37 ], [ %36, %34 ], [ %33, %31 ], [ %30, %28 ], [ %27, %25 ], [ %24, %22 ], [ %21, %19 ], [ %18, %16 ], [ %15, %13 ], [ %12, %10 ], [ %9, %7 ]
  %indvars.iv.next = add nuw nsw i64 %indvars.iv, 1
  %exitcond.not = icmp eq i64 %indvars.iv.next, %wide.trip.count
  br i1 %exitcond.not, label %._crit_edge, label %.lr.ph, !llvm.loop !113

._crit_edge:                                      ; preds = %55, %3
  %.048.lcssa = phi ptr [ %0, %3 ], [ %.1, %55 ]
  %56 = ptrtoint ptr %.048.lcssa to i64
  %57 = ptrtoint ptr %0 to i64
  %58 = sub i64 %56, %57
  %59 = trunc i64 %58 to i32
  ret i32 %59
}